; Function Attrs: inlinehint mustprogress uwtable
define internal fastcc void @_ZZN7AstNode13predicateImplIS_Lb0EZN7V3Sched12_GLOBAL__N_116VirtIfaceVisitor5visitEP11AstNodeStmtEUlPS_E_EEbPNSt11conditionalIXsr3std8is_constIT_EE5valueEKS_S_E4typeERKT1_ENKUlmE_clEm(ptr noundef nonnull readonly align 8 captures(none) dereferenceable(32) %0, i64 noundef %1) unnamed_addr #4 align 2 personality ptr @__gxx_personality_v0 {
  %3 = load ptr, ptr %0, align 8, !tbaa !241
  %4 = load ptr, ptr %3, align 8, !tbaa !149
  %5 = getelementptr inbounds nuw i8, ptr %0, i64 8
  %6 = load ptr, ptr %5, align 8, !tbaa !243
  %7 = load ptr, ptr %6, align 8, !tbaa !149
  %8 = getelementptr inbounds nuw i8, ptr %0, i64 16
  %9 = load ptr, ptr %8, align 8, !tbaa !244
  %10 = getelementptr inbounds nuw i8, ptr %9, i64 8
  %11 = load ptr, ptr %10, align 8, !tbaa !148
  %12 = load ptr, ptr %9, align 8, !tbaa !110
  %13 = ptrtoint ptr %11 to i64
  %14 = ptrtoint ptr %12 to i64
  %15 = sub i64 %13, %14
  %16 = ashr exact i64 %15, 3
  %17 = icmp ugt i64 %1, %16
  br i1 %17, label %18, label %20

18:                                               ; preds = %2
  %19 = sub nuw i64 %1, %16
  tail call void @_ZNSt6vectorIP7AstNodeSaIS1_EE17_M_default_appendEm(ptr noundef nonnull align 8 dereferenceable(24) %9, i64 noundef %19)
  %.pre = load ptr, ptr %8, align 8, !tbaa !244
  %.pre3 = load ptr, ptr %.pre, align 8, !tbaa !110
  %.pre4 = load ptr, ptr %5, align 8, !tbaa !243
  %.pre5 = load ptr, ptr %0, align 8, !tbaa !241
  br label %_ZNSt6vectorIP7AstNodeSaIS1_EE6resizeEm.exit

20:                                               ; preds = %2
  %21 = icmp ult i64 %1, %16
  br i1 %21, label %22, label %_ZNSt6vectorIP7AstNodeSaIS1_EE6resizeEm.exit

22:                                               ; preds = %20
  %23 = getelementptr inbounds nuw ptr, ptr %12, i64 %1
  %.not.i.i = icmp eq ptr %11, %23
  br i1 %.not.i.i, label %_ZNSt6vectorIP7AstNodeSaIS1_EE6resizeEm.exit, label %24

24:                                               ; preds = %22
  store ptr %23, ptr %10, align 8, !tbaa !148
  br label %_ZNSt6vectorIP7AstNodeSaIS1_EE6resizeEm.exit

_ZNSt6vectorIP7AstNodeSaIS1_EE6resizeEm.exit:     ; preds = %18, %20, %22, %24
  %25 = phi ptr [ %.pre5, %18 ], [ %3, %20 ], [ %3, %22 ], [ %3, %24 ]
  %26 = phi ptr [ %.pre4, %18 ], [ %6, %20 ], [ %6, %22 ], [ %6, %24 ]
  %27 = phi ptr [ %.pre3, %18 ], [ %12, %20 ], [ %12, %22 ], [ %12, %24 ]
  %28 = ptrtoint ptr %4 to i64
  %29 = ptrtoint ptr %7 to i64
  %30 = sub i64 %28, %29
  %31 = getelementptr inbounds nuw i8, ptr %27, i64 16
  store ptr %31, ptr %26, align 8, !tbaa !149
  %32 = getelementptr inbounds i8, ptr %31, i64 %30
  store ptr %32, ptr %25, align 8, !tbaa !149
  %33 = load ptr, ptr %26, align 8, !tbaa !149
  %34 = getelementptr inbounds nuw ptr, ptr %33, i64 %1
  %35 = getelementptr inbounds i8, ptr %34, i64 -40
  %36 = getelementptr inbounds nuw i8, ptr %0, i64 24
  %37 = load ptr, ptr %36, align 8, !tbaa !245
  store ptr %35, ptr %37, align 8, !tbaa !149
  ret void
}